target datalayout = "e-m:e-p270:32:32-p271:32:32-p272:64:64-i64:64-i128:128-f80:128-n8:16:32:64-S128"
target triple = "x86_64-pc-linux-gnu"

%struct.erf_if_mapping = type { i64, i8, [8 x %struct.erf_if_info], ptr, ptr, i8, i32, i32, i64, i64 }
%struct.erf_if_info = type { i32, ptr, ptr, i32, %struct.anon.1 }
%struct.anon.1 = type { i8, [3 x i8] }

; Function Attrs: nounwind null_pointer_is_valid sspstrong uwtable
define internal i32 @erf_if_mapping_equal(ptr noundef %0, ptr noundef %1) #6 {
  %3 = alloca ptr, align 8
  %4 = alloca ptr, align 8
  %5 = alloca ptr, align 8
  %6 = alloca ptr, align 8
  store ptr %0, ptr %3, align 8
  store ptr %1, ptr %4, align 8
  call void @llvm.lifetime.start.p0(i64 8, ptr %5) #16
  %7 = load ptr, ptr %3, align 8
  store ptr %7, ptr %5, align 8
  call void @llvm.lifetime.start.p0(i64 8, ptr %6) #16
  %8 = load ptr, ptr %4, align 8
  store ptr %8, ptr %6, align 8
  %9 = load ptr, ptr %5, align 8
  %10 = getelementptr inbounds nuw %struct.erf_if_mapping, ptr %9, i32 0, i32 1
  %11 = load i8, ptr %10, align 8
  %12 = zext i8 %11 to i32
  %13 = load ptr, ptr %6, align 8
  %14 = getelementptr inbounds nuw %struct.erf_if_mapping, ptr %13, i32 0, i32 1
  %15 = load i8, ptr %14, align 8
  %16 = zext i8 %15 to i32
  %17 = icmp eq i32 %12, %16
  br i1 %17, label %18, label %26

18:                                               ; preds = %2
  %19 = load ptr, ptr %5, align 8
  %20 = getelementptr inbounds nuw %struct.erf_if_mapping, ptr %19, i32 0, i32 0
  %21 = load i64, ptr %20, align 8
  %22 = load ptr, ptr %6, align 8
  %23 = getelementptr inbounds nuw %struct.erf_if_mapping, ptr %22, i32 0, i32 0
  %24 = load i64, ptr %23, align 8
  %25 = icmp eq i64 %21, %24
  br label %26

26:                                               ; preds = %18, %2
  %27 = phi i1 [ false, %2 ], [ %25, %18 ]
  %28 = zext i1 %27 to i32
  call void @llvm.lifetime.end.p0(i64 8, ptr %6) #16
  call void @llvm.lifetime.end.p0(i64 8, ptr %5) #16
  ret i32 %28
}