; Function Attrs: mustprogress nofree norecurse nosync nounwind null_pointer_is_valid sspstrong willreturn memory(argmem: read) uwtable
define internal range(i32 0, 2) i32 @erf_if_mapping_equal(ptr noundef readonly captures(none) %0, ptr noundef readonly captures(none) %1) #4 {
  %3 = getelementptr inbounds nuw i8, ptr %0, i64 8
  %4 = load i8, ptr %3, align 8
  %5 = getelementptr inbounds nuw i8, ptr %1, i64 8
  %6 = load i8, ptr %5, align 8
  %7 = icmp eq i8 %4, %6
  br i1 %7, label %8, label %13

8:                                                ; preds = %2
  %9 = load i64, ptr %0, align 8
  %10 = load i64, ptr %1, align 8
  %11 = icmp eq i64 %9, %10
  %12 = zext i1 %11 to i32
  br label %13

13:                                               ; preds = %8, %2
  %14 = phi i32 [ 0, %2 ], [ %12, %8 ]
  ret i32 %14
}